target datalayout = "e-m:e-p270:32:32-p271:32:32-p272:64:64-i64:64-i128:128-f80:128-n8:16:32:64-S128"
target triple = "x86_64-pc-linux-gnu"

%class.ZMarkThreadLocalStacks = type { ptr, [16 x ptr] }

; Function Attrs: mustprogress nounwind uwtable
define hidden noundef zeroext i1 @_ZNK22ZMarkThreadLocalStacks8is_emptyEPK14ZMarkStripeSet(ptr noundef nonnull align 8 dereferenceable(136) %0, ptr noundef %1) #1 align 2 {
  %3 = alloca i1, align 1
  %4 = alloca ptr, align 8
  %5 = alloca ptr, align 8
  %6 = alloca i64, align 8
  %7 = alloca ptr, align 8
  store ptr %0, ptr %4, align 8
  store ptr %1, ptr %5, align 8
  %8 = load ptr, ptr %4, align 8
  store i64 0, ptr %6, align 8
  br label %9

9:                                                ; preds = %21, %2
  %10 = load i64, ptr %6, align 8
  %11 = icmp ult i64 %10, 16
  br i1 %11, label %12, label %24

12:                                               ; preds = %9
  %13 = getelementptr inbounds %class.ZMarkThreadLocalStacks, ptr %8, i32 0, i32 1
  %14 = load i64, ptr %6, align 8
  %15 = getelementptr inbounds [16 x ptr], ptr %13, i64 0, i64 %14
  %16 = load ptr, ptr %15, align 8
  store ptr %16, ptr %7, align 8
  %17 = load ptr, ptr %7, align 8
  %18 = icmp ne ptr %17, null
  br i1 %18, label %19, label %20

19:                                               ; preds = %12
  store i1 false, ptr %3, align 1
  br label %25

20:                                               ; preds = %12
  br label %21

21:                                               ; preds = %20
  %22 = load i64, ptr %6, align 8
  %23 = add i64 %22, 1
  store i64 %23, ptr %6, align 8
  br label %9, !llvm.loop !10

24:                                               ; preds = %9
  store i1 true, ptr %3, align 1
  br label %25

25:                                               ; preds = %24, %19
  %26 = load i1, ptr %3, align 1
  ret i1 %26
}