; Function Attrs: mustprogress nofree norecurse nosync nounwind willreturn memory(argmem: read) uwtable
define hidden noundef zeroext i1 @_ZNK22ZMarkThreadLocalStacks8is_emptyEPK14ZMarkStripeSet(ptr nocapture noundef nonnull readonly align 8 dereferenceable(136) %0, ptr nocapture noundef readnone %1) local_unnamed_addr #5 align 2 {
  %3 = getelementptr inbounds i8, ptr %0, i64 8
  %4 = load ptr, ptr %3, align 8
  %.not7 = icmp eq ptr %4, null
  br i1 %.not7, label %.lr.ph, label %._crit_edge

.lr.ph:                                           ; preds = %2, %6
  %.0568 = phi i64 [ %5, %6 ], [ 0, %2 ]
  %5 = add nuw nsw i64 %.0568, 1
  %exitcond = icmp eq i64 %5, 16
  br i1 %exitcond, label %._crit_edge.loopexit, label %6, !llvm.loop !9

6:                                                ; preds = %.lr.ph
  %7 = getelementptr inbounds [16 x ptr], ptr %3, i64 0, i64 %5
  %8 = load ptr, ptr %7, align 8
  %.not = icmp eq ptr %8, null
  br i1 %.not, label %.lr.ph, label %._crit_edge.loopexit, !llvm.loop !9

._crit_edge.loopexit:                             ; preds = %.lr.ph, %6
  %9 = icmp ugt i64 %.0568, 14
  br label %._crit_edge

._crit_edge:                                      ; preds = %._crit_edge.loopexit, %2
  %.lcssa = phi i1 [ false, %2 ], [ %9, %._crit_edge.loopexit ]
  ret i1 %.lcssa
}